target datalayout = "e-m:e-p270:32:32-p271:32:32-p272:64:64-i64:64-i128:128-f80:128-n8:16:32:64-S128"
target triple = "x86_64-unknown-linux-gnu"

%struct.BdrvChild = type { ptr, ptr, ptr, i32, ptr, i64, i64, i8, i8, %struct.anon, %struct.anon.0 }
%struct.anon = type { ptr, ptr }
%struct.anon.0 = type { ptr, ptr }
%struct.BdrvChildClass = type { i8, i8, ptr, ptr, ptr, ptr, ptr, ptr, ptr, ptr, ptr, ptr, ptr, ptr, ptr, ptr, ptr }
%struct.BlockLimits = type { i32, i64, i32, i64, i32, i32, i32, i64, i32, i64, i64, i32, i8, i32, i32, i32, i32, i32, i32, i32 }
%struct.BlockDriverState = type { i32, i8, i8, i8, i8, i8, ptr, ptr, ptr, %struct.anon.1, i8, [4096 x i8], [4096 x i8], [4096 x i8], [16 x i8], ptr, [4096 x i8], %struct.BlockLimits, i32, i32, i32, i32, [32 x i8], %union.anon, %union.anon.2, %union.anon.3, i32, [16 x %struct.anon.4], ptr, %struct.anon.5, ptr, ptr, %struct.anon.6, ptr, ptr, i32, ptr, i64, i64, %struct.QemuMutex, %struct.anon.7, %struct.Stat64, i32, i32, i32, i32, i32, i32, %struct.QemuMutex, %struct.anon.8, %struct.CoQueue, i8, i32, i8, %struct.CoMutex, ptr, ptr }
%struct.anon.1 = type { ptr }
%union.anon = type { %struct.QTailQLink }
%struct.QTailQLink = type { ptr, ptr }
%union.anon.2 = type { %struct.QTailQLink }
%union.anon.3 = type { %struct.QTailQLink }
%struct.anon.4 = type { ptr }
%struct.anon.5 = type { ptr }
%struct.anon.6 = type { ptr }
%struct.anon.7 = type { ptr }
%struct.Stat64 = type { i64 }
%struct.QemuMutex = type { %union.pthread_mutex_t, i8 }
%union.pthread_mutex_t = type { %struct.__pthread_mutex_s }
%struct.__pthread_mutex_s = type { i32, i32, i32, i32, i32, i16, i16, %struct.__pthread_internal_list }
%struct.__pthread_internal_list = type { ptr, ptr }
%struct.anon.8 = type { ptr }
%struct.CoQueue = type { %struct.anon.9 }
%struct.anon.9 = type { ptr, ptr }
%struct.CoMutex = type { i32, ptr, %struct.anon.10, %struct.anon.10, i32, i32, ptr }
%struct.anon.10 = type { ptr }
%struct.BdrvTrackedRequest = type { ptr, i64, i64, i32, i8, i64, i64, %struct.anon.12, ptr, %struct.CoQueue, ptr }
%struct.anon.12 = type { ptr, ptr }

@error_abort = external global ptr, align 8

; Function Attrs: nounwind sspstrong uwtable
define internal void @stat64_max(ptr noundef %s, i64 noundef %value) #0 {
entry:
  %s.addr = alloca ptr, align 8
  %value.addr = alloca i64, align 8
  %orig = alloca i64, align 8
  %atomic-temp = alloca i64, align 8
  %_old = alloca i64, align 8
  %.atomictmp = alloca i64, align 8
  %cmpxchg.bool = alloca i8, align 1
  %tmp = alloca i64, align 8
  store ptr %s, ptr %s.addr, align 8
  store i64 %value, ptr %value.addr, align 8
  %0 = load ptr, ptr %s.addr, align 8
  %value1 = getelementptr inbounds %struct.Stat64, ptr %0, i32 0, i32 0
  %1 = load atomic i64, ptr %value1 monotonic, align 8
  store i64 %1, ptr %atomic-temp, align 8
  %2 = load i64, ptr %atomic-temp, align 8
  store i64 %2, ptr %orig, align 8
  br label %while.cond

while.cond:                                       ; preds = %cmpxchg.continue, %entry
  %3 = load i64, ptr %orig, align 8
  %4 = load i64, ptr %value.addr, align 8
  %cmp = icmp ult i64 %3, %4
  br i1 %cmp, label %while.body, label %while.end

while.body:                                       ; preds = %while.cond
  %5 = load i64, ptr %orig, align 8
  store i64 %5, ptr %_old, align 8
  %6 = load ptr, ptr %s.addr, align 8
  %value2 = getelementptr inbounds %struct.Stat64, ptr %6, i32 0, i32 0
  %7 = load i64, ptr %value.addr, align 8
  store i64 %7, ptr %.atomictmp, align 8
  %8 = load i64, ptr %_old, align 8
  %9 = load i64, ptr %.atomictmp, align 8
  %10 = cmpxchg ptr %value2, i64 %8, i64 %9 seq_cst seq_cst, align 8
  %11 = extractvalue { i64, i1 } %10, 0
  %12 = extractvalue { i64, i1 } %10, 1
  br i1 %12, label %cmpxchg.continue, label %cmpxchg.store_expected

cmpxchg.store_expected:                           ; preds = %while.body
  store i64 %11, ptr %_old, align 8
  br label %cmpxchg.continue

cmpxchg.continue:                                 ; preds = %cmpxchg.store_expected, %while.body
  %frombool = zext i1 %12 to i8
  store i8 %frombool, ptr %cmpxchg.bool, align 1
  %13 = load i64, ptr %_old, align 8
  store i64 %13, ptr %tmp, align 8
  %14 = load i64, ptr %tmp, align 8
  store i64 %14, ptr %orig, align 8
  br label %while.cond, !llvm.loop !38

while.end:                                        ; preds = %while.cond
  ret void
}

; Function Attrs: nounwind sspstrong uwtable
define internal void @bdrv_parent_cb_resize(ptr noundef %bs) #0 {
entry:
  %bs.addr = alloca ptr, align 8
  %c = alloca ptr, align 8
  store ptr %bs, ptr %bs.addr, align 8
  call void @assert_bdrv_graph_readable()
  %0 = load ptr, ptr %bs.addr, align 8
  %parents = getelementptr inbounds %struct.BlockDriverState, ptr %0, i32 0, i32 32
  %lh_first = getelementptr inbounds %struct.anon.6, ptr %parents, i32 0, i32 0
  %1 = load ptr, ptr %lh_first, align 8
  store ptr %1, ptr %c, align 8
  br label %for.cond

for.cond:                                         ; preds = %for.inc, %entry
  %2 = load ptr, ptr %c, align 8
  %tobool = icmp ne ptr %2, null
  br i1 %tobool, label %for.body, label %for.end

for.body:                                         ; preds = %for.cond
  %3 = load ptr, ptr %c, align 8
  %klass = getelementptr inbounds %struct.BdrvChild, ptr %3, i32 0, i32 2
  %4 = load ptr, ptr %klass, align 8
  %resize = getelementptr inbounds %struct.BdrvChildClass, ptr %4, i32 0, i32 14
  %5 = load ptr, ptr %resize, align 8
  %tobool1 = icmp ne ptr %5, null
  br i1 %tobool1, label %if.then, label %if.end

if.then:                                          ; preds = %for.body
  %6 = load ptr, ptr %c, align 8
  %klass2 = getelementptr inbounds %struct.BdrvChild, ptr %6, i32 0, i32 2
  %7 = load ptr, ptr %klass2, align 8
  %resize3 = getelementptr inbounds %struct.BdrvChildClass, ptr %7, i32 0, i32 14
  %8 = load ptr, ptr %resize3, align 8
  %9 = load ptr, ptr %c, align 8
  call void %8(ptr noundef %9)
  br label %if.end

if.end:                                           ; preds = %if.then, %for.body
  br label %for.inc

for.inc:                                          ; preds = %if.end
  %10 = load ptr, ptr %c, align 8
  %next_parent = getelementptr inbounds %struct.BdrvChild, ptr %10, i32 0, i32 10
  %le_next = getelementptr inbounds %struct.anon.0, ptr %next_parent, i32 0, i32 0
  %11 = load ptr, ptr %le_next, align 8
  store ptr %11, ptr %c, align 8
  br label %for.cond, !llvm.loop !37

for.end:                                          ; preds = %for.cond
  ret void
}

; Function Attrs: nounwind sspstrong uwtable
define dso_local i32 @bdrv_check_request(i64 noundef %offset, i64 noundef %bytes, ptr noundef %errp) #0 {
entry:
  %offset.addr = alloca i64, align 8
  %bytes.addr = alloca i64, align 8
  %errp.addr = alloca ptr, align 8
  store i64 %offset, ptr %offset.addr, align 8
  store i64 %bytes, ptr %bytes.addr, align 8
  store ptr %errp, ptr %errp.addr, align 8
  %0 = load i64, ptr %offset.addr, align 8
  %1 = load i64, ptr %bytes.addr, align 8
  %2 = load ptr, ptr %errp.addr, align 8
  %call = call i32 @bdrv_check_qiov_request(i64 noundef %0, i64 noundef %1, ptr noundef null, i64 noundef 0, ptr noundef %2)
  ret i32 %call
}

; Function Attrs: nounwind sspstrong uwtable
define internal void @bdrv_co_write_req_finish(ptr noundef %child, i64 noundef %offset, i64 noundef %bytes, ptr noundef %req, i32 noundef %ret) #0 {
entry:
  %child.addr = alloca ptr, align 8
  %offset.addr = alloca i64, align 8
  %bytes.addr = alloca i64, align 8
  %req.addr = alloca ptr, align 8
  %ret.addr = alloca i32, align 4
  %end_sector = alloca i64, align 8
  %bs = alloca ptr, align 8
  %.atomictmp = alloca i32, align 4
  %atomic-temp = alloca i32, align 4
  store ptr %child, ptr %child.addr, align 8
  store i64 %offset, ptr %offset.addr, align 8
  store i64 %bytes, ptr %bytes.addr, align 8
  store ptr %req, ptr %req.addr, align 8
  store i32 %ret, ptr %ret.addr, align 4
  %0 = load i64, ptr %offset.addr, align 8
  %1 = load i64, ptr %bytes.addr, align 8
  %add = add i64 %0, %1
  %add1 = add i64 %add, 512
  %sub = sub i64 %add1, 1
  %div = udiv i64 %sub, 512
  store i64 %div, ptr %end_sector, align 8
  %2 = load ptr, ptr %child.addr, align 8
  %bs2 = getelementptr inbounds %struct.BdrvChild, ptr %2, i32 0, i32 0
  %3 = load ptr, ptr %bs2, align 8
  store ptr %3, ptr %bs, align 8
  %4 = load i64, ptr %offset.addr, align 8
  %5 = load i64, ptr %bytes.addr, align 8
  %call = call i32 @bdrv_check_request(i64 noundef %4, i64 noundef %5, ptr noundef @error_abort)
  %6 = load ptr, ptr %bs, align 8
  %write_gen = getelementptr inbounds %struct.BlockDriverState, ptr %6, i32 0, i32 47
  store i32 1, ptr %.atomictmp, align 4
  %7 = load i32, ptr %.atomictmp, align 4
  %8 = atomicrmw add ptr %write_gen, i32 %7 seq_cst, align 4
  store i32 %8, ptr %atomic-temp, align 4
  %9 = load i32, ptr %ret.addr, align 4
  %cmp = icmp eq i32 %9, 0
  br i1 %cmp, label %land.lhs.true, label %if.end

land.lhs.true:                                    ; preds = %entry
  %10 = load ptr, ptr %req.addr, align 8
  %type = getelementptr inbounds %struct.BdrvTrackedRequest, ptr %10, i32 0, i32 3
  %11 = load i32, ptr %type, align 8
  %cmp3 = icmp eq i32 %11, 3
  br i1 %cmp3, label %land.lhs.true5, label %lor.lhs.false

lor.lhs.false:                                    ; preds = %land.lhs.true
  %12 = load i64, ptr %end_sector, align 8
  %13 = load ptr, ptr %bs, align 8
  %total_sectors = getelementptr inbounds %struct.BlockDriverState, ptr %13, i32 0, i32 37
  %14 = load i64, ptr %total_sectors, align 8
  %cmp4 = icmp sgt i64 %12, %14
  br i1 %cmp4, label %land.lhs.true5, label %if.end

land.lhs.true5:                                   ; preds = %lor.lhs.false, %land.lhs.true
  %15 = load ptr, ptr %req.addr, align 8
  %type6 = getelementptr inbounds %struct.BdrvTrackedRequest, ptr %15, i32 0, i32 3
  %16 = load i32, ptr %type6, align 8
  %cmp7 = icmp ne i32 %16, 2
  br i1 %cmp7, label %if.then, label %if.end

if.then:                                          ; preds = %land.lhs.true5
  %17 = load i64, ptr %end_sector, align 8
  %18 = load ptr, ptr %bs, align 8
  %total_sectors8 = getelementptr inbounds %struct.BlockDriverState, ptr %18, i32 0, i32 37
  store i64 %17, ptr %total_sectors8, align 8
  %19 = load ptr, ptr %bs, align 8
  call void @bdrv_parent_cb_resize(ptr noundef %19)
  %20 = load ptr, ptr %bs, align 8
  %21 = load i64, ptr %end_sector, align 8
  %shl = shl i64 %21, 9
  call void @bdrv_dirty_bitmap_truncate(ptr noundef %20, i64 noundef %shl)
  br label %if.end

if.end:                                           ; preds = %if.then, %land.lhs.true5, %lor.lhs.false, %entry
  %22 = load ptr, ptr %req.addr, align 8
  %bytes9 = getelementptr inbounds %struct.BdrvTrackedRequest, ptr %22, i32 0, i32 2
  %23 = load i64, ptr %bytes9, align 8
  %tobool = icmp ne i64 %23, 0
  br i1 %tobool, label %if.then10, label %if.end14

if.then10:                                        ; preds = %if.end
  %24 = load ptr, ptr %req.addr, align 8
  %type11 = getelementptr inbounds %struct.BdrvTrackedRequest, ptr %24, i32 0, i32 3
  %25 = load i32, ptr %type11, align 8
  switch i32 %25, label %sw.default [
    i32 1, label %sw.bb
    i32 2, label %sw.bb13
  ]

sw.bb:                                            ; preds = %if.then10
  %26 = load ptr, ptr %bs, align 8
  %wr_highest_offset = getelementptr inbounds %struct.BlockDriverState, ptr %26, i32 0, i32 41
  %27 = load i64, ptr %offset.addr, align 8
  %28 = load i64, ptr %bytes.addr, align 8
  %add12 = add i64 %27, %28
  call void @stat64_max(ptr noundef %wr_highest_offset, i64 noundef %add12)
  br label %sw.bb13

sw.bb13:                                          ; preds = %sw.bb, %if.then10
  %29 = load ptr, ptr %bs, align 8
  %30 = load i64, ptr %offset.addr, align 8
  %31 = load i64, ptr %bytes.addr, align 8
  call void @bdrv_set_dirty(ptr noundef %29, i64 noundef %30, i64 noundef %31)
  br label %sw.epilog

sw.default:                                       ; preds = %if.then10
  br label %sw.epilog

sw.epilog:                                        ; preds = %sw.default, %sw.bb13
  br label %if.end14

if.end14:                                         ; preds = %sw.epilog, %if.end
  ret void
}