; Function Attrs: nounwind sspstrong uwtable
define internal void @bdrv_co_write_req_finish(ptr noundef readonly captures(none) %child, i64 noundef %offset, i64 noundef %bytes, ptr noundef readonly captures(none) %req, i32 noundef %ret) #0 {
entry:
  %add = add i64 %bytes, %offset
  %sub = add i64 %add, 511
  %div18 = lshr i64 %sub, 9
  %0 = load ptr, ptr %child, align 8
  %call.i = tail call range(i32 -5, 1) i32 @bdrv_check_qiov_request(i64 noundef %offset, i64 noundef %bytes, ptr noundef null, i64 noundef 0, ptr noundef nonnull @error_abort)
  %write_gen = getelementptr inbounds nuw i8, ptr %0, i64 16988
  %1 = atomicrmw add ptr %write_gen, i32 1 seq_cst, align 4
  %cmp = icmp eq i32 %ret, 0
  br i1 %cmp, label %land.lhs.true, label %if.end

land.lhs.true:                                    ; preds = %entry
  %type = getelementptr inbounds nuw i8, ptr %req, i64 24
  %2 = load i32, ptr %type, align 8
  %cmp3 = icmp eq i32 %2, 3
  br i1 %cmp3, label %if.then, label %lor.lhs.false

lor.lhs.false:                                    ; preds = %land.lhs.true
  %total_sectors = getelementptr inbounds nuw i8, ptr %0, i64 16888
  %3 = load i64, ptr %total_sectors, align 8
  %cmp4 = icmp sle i64 %div18, %3
  %cmp7.not = icmp eq i32 %2, 2
  %or.cond = or i1 %cmp7.not, %cmp4
  br i1 %or.cond, label %if.end, label %if.then

if.then:                                          ; preds = %lor.lhs.false, %land.lhs.true
  %total_sectors8 = getelementptr inbounds nuw i8, ptr %0, i64 16888
  store i64 %div18, ptr %total_sectors8, align 8
  tail call void @assert_bdrv_graph_readable() #15
  %parents.i = getelementptr inbounds nuw i8, ptr %0, i64 16848
  %c.05.i = load ptr, ptr %parents.i, align 8
  %tobool.not6.i = icmp eq ptr %c.05.i, null
  br i1 %tobool.not6.i, label %bdrv_parent_cb_resize.exit, label %for.body.i

for.body.i:                                       ; preds = %if.then, %for.inc.i
  %c.07.i = phi ptr [ %c.0.i, %for.inc.i ], [ %c.05.i, %if.then ]
  %klass.i = getelementptr inbounds nuw i8, ptr %c.07.i, i64 16
  %4 = load ptr, ptr %klass.i, align 8
  %resize.i = getelementptr inbounds nuw i8, ptr %4, i64 104
  %5 = load ptr, ptr %resize.i, align 8
  %tobool1.not.i = icmp eq ptr %5, null
  br i1 %tobool1.not.i, label %for.inc.i, label %if.then.i

if.then.i:                                        ; preds = %for.body.i
  tail call void %5(ptr noundef nonnull %c.07.i) #15
  br label %for.inc.i

for.inc.i:                                        ; preds = %if.then.i, %for.body.i
  %next_parent.i = getelementptr inbounds nuw i8, ptr %c.07.i, i64 80
  %c.0.i = load ptr, ptr %next_parent.i, align 8
  %tobool.not.i = icmp eq ptr %c.0.i, null
  br i1 %tobool.not.i, label %bdrv_parent_cb_resize.exit, label %for.body.i, !llvm.loop !30

bdrv_parent_cb_resize.exit:                       ; preds = %for.inc.i, %if.then
  %shl = and i64 %sub, -512
  tail call void @bdrv_dirty_bitmap_truncate(ptr noundef %0, i64 noundef %shl) #15
  br label %if.end

if.end:                                           ; preds = %bdrv_parent_cb_resize.exit, %lor.lhs.false, %entry
  %bytes9 = getelementptr inbounds nuw i8, ptr %req, i64 16
  %6 = load i64, ptr %bytes9, align 8
  %tobool.not = icmp eq i64 %6, 0
  br i1 %tobool.not, label %if.end14, label %if.then10

if.then10:                                        ; preds = %if.end
  %type11 = getelementptr inbounds nuw i8, ptr %req, i64 24
  %7 = load i32, ptr %type11, align 8
  switch i32 %7, label %if.end14 [
    i32 1, label %sw.bb
    i32 2, label %sw.bb13
  ]

sw.bb:                                            ; preds = %if.then10
  %wr_highest_offset = getelementptr inbounds nuw i8, ptr %0, i64 16960
  %8 = load atomic i64, ptr %wr_highest_offset monotonic, align 8
  %cmp5.i = icmp ult i64 %8, %add
  br i1 %cmp5.i, label %while.body.i, label %sw.bb13

while.body.i:                                     ; preds = %sw.bb, %while.body.i
  %orig.06.i = phi i64 [ %10, %while.body.i ], [ %8, %sw.bb ]
  %9 = cmpxchg ptr %wr_highest_offset, i64 %orig.06.i, i64 %add seq_cst seq_cst, align 8
  %10 = extractvalue { i64, i1 } %9, 0
  %cmp.i = icmp ult i64 %10, %add
  br i1 %cmp.i, label %while.body.i, label %sw.bb13, !llvm.loop !31

sw.bb13:                                          ; preds = %while.body.i, %sw.bb, %if.then10
  tail call void @bdrv_set_dirty(ptr noundef %0, i64 noundef %offset, i64 noundef %bytes) #15
  br label %if.end14

if.end14:                                         ; preds = %sw.bb13, %if.then10, %if.end
  ret void
}